target datalayout = "e-m:e-p270:32:32-p271:32:32-p272:64:64-i64:64-i128:128-f80:128-n8:16:32:64-S128"
target triple = "x86_64-pc-linux-gnu"

%"class.std::__cxx11::basic_string" = type { %"struct.std::__cxx11::basic_string<char>::_Alloc_hider", i64, %union.anon }
%"struct.std::__cxx11::basic_string<char>::_Alloc_hider" = type { ptr }
%union.anon = type { i64, [8 x i8] }
%"class.open3d::visualization::glsl::ShaderWrapper" = type { ptr, i32, i32, i32, i32, i32, i32, i8, i8, %"class.std::__cxx11::basic_string" }

@__glewCreateShader = external global ptr, align 8
@__glewShaderSource = external global ptr, align 8
@__glewCompileShader = external global ptr, align 8
@__glewCreateProgram = external global ptr, align 8
@__glewAttachShader = external global ptr, align 8
@__glewLinkProgram = external global ptr, align 8
@__glewDeleteShader = external global ptr, align 8

; Function Attrs: mustprogress ssp uwtable
define hidden noundef zeroext i1 @_ZN6open3d13visualization4glsl13ShaderWrapper14CompileShadersEPKcS4_S4_(ptr noundef nonnull align 8 dereferenceable(72) %0, ptr noundef %1, ptr noundef %2, ptr noundef %3) #3 align 2 {
  %5 = alloca i1, align 1
  %6 = alloca ptr, align 8
  %7 = alloca ptr, align 8
  %8 = alloca ptr, align 8
  %9 = alloca ptr, align 8
  %10 = alloca ptr, align 8
  %11 = alloca i32, align 4
  %12 = alloca ptr, align 8
  %13 = alloca ptr, align 8
  store ptr %0, ptr %6, align 8, !tbaa !148
  store ptr %1, ptr %7, align 8, !tbaa !168
  store ptr %2, ptr %8, align 8, !tbaa !168
  store ptr %3, ptr %9, align 8, !tbaa !168
  %14 = load ptr, ptr %6, align 8
  %15 = getelementptr inbounds nuw %"class.open3d::visualization::glsl::ShaderWrapper", ptr %14, i32 0, i32 7
  %16 = load i8, ptr %15, align 8, !tbaa !156, !range !116, !noundef !117
  %17 = trunc i8 %16 to i1
  br i1 %17, label %18, label %19

18:                                               ; preds = %4
  store i1 true, ptr %5, align 1
  br label %146

19:                                               ; preds = %4
  %20 = load ptr, ptr %7, align 8, !tbaa !168
  %21 = icmp ne ptr %20, null
  br i1 %21, label %22, label %41

22:                                               ; preds = %19
  %23 = load ptr, ptr @__glewCreateShader, align 8, !tbaa !86
  %24 = call i32 %23(i32 noundef 35633)
  %25 = getelementptr inbounds nuw %"class.open3d::visualization::glsl::ShaderWrapper", ptr %14, i32 0, i32 1
  store i32 %24, ptr %25, align 8, !tbaa !853
  call void @llvm.lifetime.start.p0(i64 8, ptr %10) #7
  %26 = load ptr, ptr %7, align 8, !tbaa !168
  store ptr %26, ptr %10, align 8, !tbaa !168
  %27 = load ptr, ptr @__glewShaderSource, align 8, !tbaa !86
  %28 = getelementptr inbounds nuw %"class.open3d::visualization::glsl::ShaderWrapper", ptr %14, i32 0, i32 1
  %29 = load i32, ptr %28, align 8, !tbaa !853
  call void %27(i32 noundef %29, i32 noundef 1, ptr noundef %10, ptr noundef null)
  %30 = load ptr, ptr @__glewCompileShader, align 8, !tbaa !86
  %31 = getelementptr inbounds nuw %"class.open3d::visualization::glsl::ShaderWrapper", ptr %14, i32 0, i32 1
  %32 = load i32, ptr %31, align 8, !tbaa !853
  call void %30(i32 noundef %32)
  %33 = getelementptr inbounds nuw %"class.open3d::visualization::glsl::ShaderWrapper", ptr %14, i32 0, i32 1
  %34 = load i32, ptr %33, align 8, !tbaa !853
  %35 = call noundef zeroext i1 @_ZN6open3d13visualization4glsl13ShaderWrapper14ValidateShaderEj(ptr noundef nonnull align 8 dereferenceable(72) %14, i32 noundef %34)
  br i1 %35, label %37, label %36

36:                                               ; preds = %22
  store i1 false, ptr %5, align 1
  store i32 1, ptr %11, align 4
  br label %38

37:                                               ; preds = %22
  store i32 0, ptr %11, align 4
  br label %38

38:                                               ; preds = %37, %36
  call void @llvm.lifetime.end.p0(i64 8, ptr %10) #7
  %39 = load i32, ptr %11, align 4
  switch i32 %39, label %148 [
    i32 0, label %40
    i32 1, label %146
  ]

40:                                               ; preds = %38
  br label %41

41:                                               ; preds = %40, %19
  %42 = load ptr, ptr %8, align 8, !tbaa !168
  %43 = icmp ne ptr %42, null
  br i1 %43, label %44, label %63

44:                                               ; preds = %41
  %45 = load ptr, ptr @__glewCreateShader, align 8, !tbaa !86
  %46 = call i32 %45(i32 noundef 36313)
  %47 = getelementptr inbounds nuw %"class.open3d::visualization::glsl::ShaderWrapper", ptr %14, i32 0, i32 2
  store i32 %46, ptr %47, align 4, !tbaa !854
  call void @llvm.lifetime.start.p0(i64 8, ptr %12) #7
  %48 = load ptr, ptr %8, align 8, !tbaa !168
  store ptr %48, ptr %12, align 8, !tbaa !168
  %49 = load ptr, ptr @__glewShaderSource, align 8, !tbaa !86
  %50 = getelementptr inbounds nuw %"class.open3d::visualization::glsl::ShaderWrapper", ptr %14, i32 0, i32 2
  %51 = load i32, ptr %50, align 4, !tbaa !854
  call void %49(i32 noundef %51, i32 noundef 1, ptr noundef %12, ptr noundef null)
  %52 = load ptr, ptr @__glewCompileShader, align 8, !tbaa !86
  %53 = getelementptr inbounds nuw %"class.open3d::visualization::glsl::ShaderWrapper", ptr %14, i32 0, i32 2
  %54 = load i32, ptr %53, align 4, !tbaa !854
  call void %52(i32 noundef %54)
  %55 = getelementptr inbounds nuw %"class.open3d::visualization::glsl::ShaderWrapper", ptr %14, i32 0, i32 2
  %56 = load i32, ptr %55, align 4, !tbaa !854
  %57 = call noundef zeroext i1 @_ZN6open3d13visualization4glsl13ShaderWrapper14ValidateShaderEj(ptr noundef nonnull align 8 dereferenceable(72) %14, i32 noundef %56)
  br i1 %57, label %59, label %58

58:                                               ; preds = %44
  store i1 false, ptr %5, align 1
  store i32 1, ptr %11, align 4
  br label %60

59:                                               ; preds = %44
  store i32 0, ptr %11, align 4
  br label %60

60:                                               ; preds = %59, %58
  call void @llvm.lifetime.end.p0(i64 8, ptr %12) #7
  %61 = load i32, ptr %11, align 4
  switch i32 %61, label %148 [
    i32 0, label %62
    i32 1, label %146
  ]

62:                                               ; preds = %60
  br label %63

63:                                               ; preds = %62, %41
  %64 = load ptr, ptr %9, align 8, !tbaa !168
  %65 = icmp ne ptr %64, null
  br i1 %65, label %66, label %85

66:                                               ; preds = %63
  %67 = load ptr, ptr @__glewCreateShader, align 8, !tbaa !86
  %68 = call i32 %67(i32 noundef 35632)
  %69 = getelementptr inbounds nuw %"class.open3d::visualization::glsl::ShaderWrapper", ptr %14, i32 0, i32 3
  store i32 %68, ptr %69, align 8, !tbaa !855
  call void @llvm.lifetime.start.p0(i64 8, ptr %13) #7
  %70 = load ptr, ptr %9, align 8, !tbaa !168
  store ptr %70, ptr %13, align 8, !tbaa !168
  %71 = load ptr, ptr @__glewShaderSource, align 8, !tbaa !86
  %72 = getelementptr inbounds nuw %"class.open3d::visualization::glsl::ShaderWrapper", ptr %14, i32 0, i32 3
  %73 = load i32, ptr %72, align 8, !tbaa !855
  call void %71(i32 noundef %73, i32 noundef 1, ptr noundef %13, ptr noundef null)
  %74 = load ptr, ptr @__glewCompileShader, align 8, !tbaa !86
  %75 = getelementptr inbounds nuw %"class.open3d::visualization::glsl::ShaderWrapper", ptr %14, i32 0, i32 3
  %76 = load i32, ptr %75, align 8, !tbaa !855
  call void %74(i32 noundef %76)
  %77 = getelementptr inbounds nuw %"class.open3d::visualization::glsl::ShaderWrapper", ptr %14, i32 0, i32 3
  %78 = load i32, ptr %77, align 8, !tbaa !855
  %79 = call noundef zeroext i1 @_ZN6open3d13visualization4glsl13ShaderWrapper14ValidateShaderEj(ptr noundef nonnull align 8 dereferenceable(72) %14, i32 noundef %78)
  br i1 %79, label %81, label %80

80:                                               ; preds = %66
  store i1 false, ptr %5, align 1
  store i32 1, ptr %11, align 4
  br label %82

81:                                               ; preds = %66
  store i32 0, ptr %11, align 4
  br label %82

82:                                               ; preds = %81, %80
  call void @llvm.lifetime.end.p0(i64 8, ptr %13) #7
  %83 = load i32, ptr %11, align 4
  switch i32 %83, label %148 [
    i32 0, label %84
    i32 1, label %146
  ]

84:                                               ; preds = %82
  br label %85

85:                                               ; preds = %84, %63
  %86 = load ptr, ptr @__glewCreateProgram, align 8, !tbaa !86
  %87 = call i32 %86()
  %88 = getelementptr inbounds nuw %"class.open3d::visualization::glsl::ShaderWrapper", ptr %14, i32 0, i32 4
  store i32 %87, ptr %88, align 4, !tbaa !856
  %89 = load ptr, ptr %7, align 8, !tbaa !168
  %90 = icmp ne ptr %89, null
  br i1 %90, label %91, label %97

91:                                               ; preds = %85
  %92 = load ptr, ptr @__glewAttachShader, align 8, !tbaa !86
  %93 = getelementptr inbounds nuw %"class.open3d::visualization::glsl::ShaderWrapper", ptr %14, i32 0, i32 4
  %94 = load i32, ptr %93, align 4, !tbaa !856
  %95 = getelementptr inbounds nuw %"class.open3d::visualization::glsl::ShaderWrapper", ptr %14, i32 0, i32 1
  %96 = load i32, ptr %95, align 8, !tbaa !853
  call void %92(i32 noundef %94, i32 noundef %96)
  br label %97

97:                                               ; preds = %91, %85
  %98 = load ptr, ptr %8, align 8, !tbaa !168
  %99 = icmp ne ptr %98, null
  br i1 %99, label %100, label %106

100:                                              ; preds = %97
  %101 = load ptr, ptr @__glewAttachShader, align 8, !tbaa !86
  %102 = getelementptr inbounds nuw %"class.open3d::visualization::glsl::ShaderWrapper", ptr %14, i32 0, i32 4
  %103 = load i32, ptr %102, align 4, !tbaa !856
  %104 = getelementptr inbounds nuw %"class.open3d::visualization::glsl::ShaderWrapper", ptr %14, i32 0, i32 2
  %105 = load i32, ptr %104, align 4, !tbaa !854
  call void %101(i32 noundef %103, i32 noundef %105)
  br label %106

106:                                              ; preds = %100, %97
  %107 = load ptr, ptr %9, align 8, !tbaa !168
  %108 = icmp ne ptr %107, null
  br i1 %108, label %109, label %115

109:                                              ; preds = %106
  %110 = load ptr, ptr @__glewAttachShader, align 8, !tbaa !86
  %111 = getelementptr inbounds nuw %"class.open3d::visualization::glsl::ShaderWrapper", ptr %14, i32 0, i32 4
  %112 = load i32, ptr %111, align 4, !tbaa !856
  %113 = getelementptr inbounds nuw %"class.open3d::visualization::glsl::ShaderWrapper", ptr %14, i32 0, i32 3
  %114 = load i32, ptr %113, align 8, !tbaa !855
  call void %110(i32 noundef %112, i32 noundef %114)
  br label %115

115:                                              ; preds = %109, %106
  %116 = load ptr, ptr @__glewLinkProgram, align 8, !tbaa !86
  %117 = getelementptr inbounds nuw %"class.open3d::visualization::glsl::ShaderWrapper", ptr %14, i32 0, i32 4
  %118 = load i32, ptr %117, align 4, !tbaa !856
  call void %116(i32 noundef %118)
  %119 = getelementptr inbounds nuw %"class.open3d::visualization::glsl::ShaderWrapper", ptr %14, i32 0, i32 4
  %120 = load i32, ptr %119, align 4, !tbaa !856
  %121 = call noundef zeroext i1 @_ZN6open3d13visualization4glsl13ShaderWrapper15ValidateProgramEj(ptr noundef nonnull align 8 dereferenceable(72) %14, i32 noundef %120)
  br i1 %121, label %123, label %122

122:                                              ; preds = %115
  store i1 false, ptr %5, align 1
  br label %146

123:                                              ; preds = %115
  %124 = load ptr, ptr %7, align 8, !tbaa !168
  %125 = icmp ne ptr %124, null
  br i1 %125, label %126, label %130

126:                                              ; preds = %123
  %127 = load ptr, ptr @__glewDeleteShader, align 8, !tbaa !86
  %128 = getelementptr inbounds nuw %"class.open3d::visualization::glsl::ShaderWrapper", ptr %14, i32 0, i32 1
  %129 = load i32, ptr %128, align 8, !tbaa !853
  call void %127(i32 noundef %129)
  br label %130

130:                                              ; preds = %126, %123
  %131 = load ptr, ptr %8, align 8, !tbaa !168
  %132 = icmp ne ptr %131, null
  br i1 %132, label %133, label %137

133:                                              ; preds = %130
  %134 = load ptr, ptr @__glewDeleteShader, align 8, !tbaa !86
  %135 = getelementptr inbounds nuw %"class.open3d::visualization::glsl::ShaderWrapper", ptr %14, i32 0, i32 2
  %136 = load i32, ptr %135, align 4, !tbaa !854
  call void %134(i32 noundef %136)
  br label %137

137:                                              ; preds = %133, %130
  %138 = load ptr, ptr %9, align 8, !tbaa !168
  %139 = icmp ne ptr %138, null
  br i1 %139, label %140, label %144

140:                                              ; preds = %137
  %141 = load ptr, ptr @__glewDeleteShader, align 8, !tbaa !86
  %142 = getelementptr inbounds nuw %"class.open3d::visualization::glsl::ShaderWrapper", ptr %14, i32 0, i32 3
  %143 = load i32, ptr %142, align 8, !tbaa !855
  call void %141(i32 noundef %143)
  br label %144

144:                                              ; preds = %140, %137
  %145 = getelementptr inbounds nuw %"class.open3d::visualization::glsl::ShaderWrapper", ptr %14, i32 0, i32 7
  store i8 1, ptr %145, align 8, !tbaa !156
  store i1 true, ptr %5, align 1
  br label %146

146:                                              ; preds = %144, %122, %82, %60, %38, %18
  %147 = load i1, ptr %5, align 1
  ret i1 %147

148:                                              ; preds = %82, %60, %38
  unreachable
}