; Function Attrs: mustprogress ssp uwtable
define hidden noundef zeroext i1 @_ZN6open3d13visualization4glsl13ShaderWrapper14CompileShadersEPKcS4_S4_(ptr noundef nonnull align 8 captures(none) dereferenceable(72) %0, ptr noundef %1, ptr noundef %2, ptr noundef %3) local_unnamed_addr #4 align 2 {
  %5 = alloca ptr, align 8
  %6 = alloca ptr, align 8
  %7 = alloca ptr, align 8
  %8 = getelementptr inbounds nuw i8, ptr %0, i64 32
  %9 = load i8, ptr %8, align 8, !tbaa !38, !range !44, !noundef !45
  %10 = trunc nuw i8 %9 to i1
  br i1 %10, label %80, label %11

11:                                               ; preds = %4
  %.not = icmp eq ptr %1, null
  br i1 %.not, label %21, label %12

12:                                               ; preds = %11
  %13 = load ptr, ptr @__glewCreateShader, align 8, !tbaa !71
  %14 = tail call i32 %13(i32 noundef 35633)
  %15 = getelementptr inbounds nuw i8, ptr %0, i64 8
  store i32 %14, ptr %15, align 8, !tbaa !631
  call void @llvm.lifetime.start.p0(i64 8, ptr nonnull %5) #31
  store ptr %1, ptr %5, align 8, !tbaa !72
  %16 = load ptr, ptr @__glewShaderSource, align 8, !tbaa !71
  call void %16(i32 noundef %14, i32 noundef 1, ptr noundef nonnull %5, ptr noundef null)
  %17 = load ptr, ptr @__glewCompileShader, align 8, !tbaa !71
  %18 = load i32, ptr %15, align 8, !tbaa !631
  call void %17(i32 noundef %18)
  %19 = load i32, ptr %15, align 8, !tbaa !631
  %20 = call noundef zeroext i1 @_ZN6open3d13visualization4glsl13ShaderWrapper14ValidateShaderEj(ptr nonnull align 8 poison, i32 noundef %19)
  call void @llvm.lifetime.end.p0(i64 8, ptr nonnull %5) #31
  br i1 %20, label %21, label %80

21:                                               ; preds = %12, %11
  %.not22 = icmp eq ptr %2, null
  br i1 %.not22, label %31, label %22

22:                                               ; preds = %21
  %23 = load ptr, ptr @__glewCreateShader, align 8, !tbaa !71
  %24 = call i32 %23(i32 noundef 36313)
  %25 = getelementptr inbounds nuw i8, ptr %0, i64 12
  store i32 %24, ptr %25, align 4, !tbaa !632
  call void @llvm.lifetime.start.p0(i64 8, ptr nonnull %6) #31
  store ptr %2, ptr %6, align 8, !tbaa !72
  %26 = load ptr, ptr @__glewShaderSource, align 8, !tbaa !71
  call void %26(i32 noundef %24, i32 noundef 1, ptr noundef nonnull %6, ptr noundef null)
  %27 = load ptr, ptr @__glewCompileShader, align 8, !tbaa !71
  %28 = load i32, ptr %25, align 4, !tbaa !632
  call void %27(i32 noundef %28)
  %29 = load i32, ptr %25, align 4, !tbaa !632
  %30 = call noundef zeroext i1 @_ZN6open3d13visualization4glsl13ShaderWrapper14ValidateShaderEj(ptr nonnull align 8 poison, i32 noundef %29)
  call void @llvm.lifetime.end.p0(i64 8, ptr nonnull %6) #31
  br i1 %30, label %31, label %80

31:                                               ; preds = %22, %21
  %.not23 = icmp eq ptr %3, null
  br i1 %.not23, label %41, label %32

32:                                               ; preds = %31
  %33 = load ptr, ptr @__glewCreateShader, align 8, !tbaa !71
  %34 = call i32 %33(i32 noundef 35632)
  %35 = getelementptr inbounds nuw i8, ptr %0, i64 16
  store i32 %34, ptr %35, align 8, !tbaa !633
  call void @llvm.lifetime.start.p0(i64 8, ptr nonnull %7) #31
  store ptr %3, ptr %7, align 8, !tbaa !72
  %36 = load ptr, ptr @__glewShaderSource, align 8, !tbaa !71
  call void %36(i32 noundef %34, i32 noundef 1, ptr noundef nonnull %7, ptr noundef null)
  %37 = load ptr, ptr @__glewCompileShader, align 8, !tbaa !71
  %38 = load i32, ptr %35, align 8, !tbaa !633
  call void %37(i32 noundef %38)
  %39 = load i32, ptr %35, align 8, !tbaa !633
  %40 = call noundef zeroext i1 @_ZN6open3d13visualization4glsl13ShaderWrapper14ValidateShaderEj(ptr nonnull align 8 poison, i32 noundef %39)
  call void @llvm.lifetime.end.p0(i64 8, ptr nonnull %7) #31
  br i1 %40, label %41, label %80

41:                                               ; preds = %32, %31
  %42 = load ptr, ptr @__glewCreateProgram, align 8, !tbaa !71
  %43 = call i32 %42()
  %44 = getelementptr inbounds nuw i8, ptr %0, i64 20
  store i32 %43, ptr %44, align 4, !tbaa !634
  br i1 %.not, label %49, label %45

45:                                               ; preds = %41
  %46 = load ptr, ptr @__glewAttachShader, align 8, !tbaa !71
  %47 = getelementptr inbounds nuw i8, ptr %0, i64 8
  %48 = load i32, ptr %47, align 8, !tbaa !631
  call void %46(i32 noundef %43, i32 noundef %48)
  %.pre28.pre29.pre = load i32, ptr %44, align 4, !tbaa !634
  br label %49

49:                                               ; preds = %45, %41
  %.pre28.pre29 = phi i32 [ %.pre28.pre29.pre, %45 ], [ %43, %41 ]
  br i1 %.not22, label %54, label %50

50:                                               ; preds = %49
  %51 = load ptr, ptr @__glewAttachShader, align 8, !tbaa !71
  %52 = getelementptr inbounds nuw i8, ptr %0, i64 12
  %53 = load i32, ptr %52, align 4, !tbaa !632
  call void %51(i32 noundef %.pre28.pre29, i32 noundef %53)
  %.pre28.pre = load i32, ptr %44, align 4, !tbaa !634
  br label %54

54:                                               ; preds = %50, %49
  %.pre28 = phi i32 [ %.pre28.pre, %50 ], [ %.pre28.pre29, %49 ]
  br i1 %.not23, label %59, label %55

55:                                               ; preds = %54
  %56 = load ptr, ptr @__glewAttachShader, align 8, !tbaa !71
  %57 = getelementptr inbounds nuw i8, ptr %0, i64 16
  %58 = load i32, ptr %57, align 8, !tbaa !633
  call void %56(i32 noundef %.pre28, i32 noundef %58)
  %.pre = load i32, ptr %44, align 4, !tbaa !634
  br label %59

59:                                               ; preds = %55, %54
  %60 = phi i32 [ %.pre, %55 ], [ %.pre28, %54 ]
  %61 = load ptr, ptr @__glewLinkProgram, align 8, !tbaa !71
  call void %61(i32 noundef %60)
  %62 = load i32, ptr %44, align 4, !tbaa !634
  %63 = call noundef zeroext i1 @_ZN6open3d13visualization4glsl13ShaderWrapper15ValidateProgramEj(ptr nonnull align 8 poison, i32 noundef %62)
  br i1 %63, label %64, label %80

64:                                               ; preds = %59
  br i1 %.not, label %69, label %65

65:                                               ; preds = %64
  %66 = load ptr, ptr @__glewDeleteShader, align 8, !tbaa !71
  %67 = getelementptr inbounds nuw i8, ptr %0, i64 8
  %68 = load i32, ptr %67, align 8, !tbaa !631
  call void %66(i32 noundef %68)
  br label %69

69:                                               ; preds = %65, %64
  br i1 %.not22, label %74, label %70

70:                                               ; preds = %69
  %71 = load ptr, ptr @__glewDeleteShader, align 8, !tbaa !71
  %72 = getelementptr inbounds nuw i8, ptr %0, i64 12
  %73 = load i32, ptr %72, align 4, !tbaa !632
  call void %71(i32 noundef %73)
  br label %74

74:                                               ; preds = %70, %69
  br i1 %.not23, label %79, label %75

75:                                               ; preds = %74
  %76 = load ptr, ptr @__glewDeleteShader, align 8, !tbaa !71
  %77 = getelementptr inbounds nuw i8, ptr %0, i64 16
  %78 = load i32, ptr %77, align 8, !tbaa !633
  call void %76(i32 noundef %78)
  br label %79

79:                                               ; preds = %75, %74
  store i8 1, ptr %8, align 8, !tbaa !38
  br label %80

80:                                               ; preds = %32, %22, %12, %59, %4, %79
  %.016 = phi i1 [ false, %12 ], [ false, %22 ], [ false, %32 ], [ true, %79 ], [ true, %4 ], [ false, %59 ]
  ret i1 %.016
}